target datalayout = "e-m:e-p270:32:32-p271:32:32-p272:64:64-i64:64-i128:128-f80:128-n8:16:32:64-S128"
target triple = "x86_64-pc-linux-gnu"

%struct.Int128_ = type { i64, i64 }
%struct.Int = type { %struct.Int128_, i32 }

@.str = private unnamed_addr constant [36 x i8] c"FATAL ERROR %s -> in %s @ in %s:%d \00", align 1
@.str.1 = private unnamed_addr constant [22 x i8] c"Should be unreachable\00", align 1
@__func__.binary_op_matches_res = private unnamed_addr constant [22 x i8] c"binary_op_matches_res\00", align 1
@.str.2 = private unnamed_addr constant [107 x i8] c"generated/home/dtcxzyw/WorkSpace/Projects/compilers/llvm-opt-benchmark/bench/c3c/c3c/src/compiler/bigint.c\00", align 1

; Function Attrs: nounwind uwtable
define dso_local zeroext i1 @i128_is_neg(i64 %0, i64 %1) #0 {
  %3 = alloca %struct.Int128_, align 8
  %4 = getelementptr inbounds { i64, i64 }, ptr %3, i32 0, i32 0
  store i64 %0, ptr %4, align 8
  %5 = getelementptr inbounds { i64, i64 }, ptr %3, i32 0, i32 1
  store i64 %1, ptr %5, align 8
  %6 = getelementptr inbounds %struct.Int128_, ptr %3, i32 0, i32 0
  %7 = load i64, ptr %6, align 8
  %8 = lshr i64 %7, 63
  %9 = icmp ne i64 %8, 0
  ret i1 %9
}

; Function Attrs: nounwind uwtable
define dso_local i32 @i128_ucomp(i64 %0, i64 %1, i64 %2, i64 %3) #0 {
  %5 = alloca i32, align 4
  %6 = alloca %struct.Int128_, align 8
  %7 = alloca %struct.Int128_, align 8
  %8 = getelementptr inbounds { i64, i64 }, ptr %6, i32 0, i32 0
  store i64 %0, ptr %8, align 8
  %9 = getelementptr inbounds { i64, i64 }, ptr %6, i32 0, i32 1
  store i64 %1, ptr %9, align 8
  %10 = getelementptr inbounds { i64, i64 }, ptr %7, i32 0, i32 0
  store i64 %2, ptr %10, align 8
  %11 = getelementptr inbounds { i64, i64 }, ptr %7, i32 0, i32 1
  store i64 %3, ptr %11, align 8
  %12 = getelementptr inbounds %struct.Int128_, ptr %6, i32 0, i32 0
  %13 = load i64, ptr %12, align 8
  %14 = getelementptr inbounds %struct.Int128_, ptr %7, i32 0, i32 0
  %15 = load i64, ptr %14, align 8
  %16 = icmp ugt i64 %13, %15
  br i1 %16, label %17, label %18

17:                                               ; preds = %4
  store i32 1, ptr %5, align 4
  br label %39

18:                                               ; preds = %4
  %19 = getelementptr inbounds %struct.Int128_, ptr %6, i32 0, i32 0
  %20 = load i64, ptr %19, align 8
  %21 = getelementptr inbounds %struct.Int128_, ptr %7, i32 0, i32 0
  %22 = load i64, ptr %21, align 8
  %23 = icmp ult i64 %20, %22
  br i1 %23, label %24, label %25

24:                                               ; preds = %18
  store i32 -1, ptr %5, align 4
  br label %39

25:                                               ; preds = %18
  %26 = getelementptr inbounds %struct.Int128_, ptr %6, i32 0, i32 1
  %27 = load i64, ptr %26, align 8
  %28 = getelementptr inbounds %struct.Int128_, ptr %7, i32 0, i32 1
  %29 = load i64, ptr %28, align 8
  %30 = icmp eq i64 %27, %29
  br i1 %30, label %31, label %32

31:                                               ; preds = %25
  store i32 0, ptr %5, align 4
  br label %39

32:                                               ; preds = %25
  %33 = getelementptr inbounds %struct.Int128_, ptr %6, i32 0, i32 1
  %34 = load i64, ptr %33, align 8
  %35 = getelementptr inbounds %struct.Int128_, ptr %7, i32 0, i32 1
  %36 = load i64, ptr %35, align 8
  %37 = icmp ugt i64 %34, %36
  %38 = select i1 %37, i32 1, i32 -1
  store i32 %38, ptr %5, align 4
  br label %39

39:                                               ; preds = %32, %31, %24, %17
  %40 = load i32, ptr %5, align 4
  ret i32 %40
}

; Function Attrs: nounwind uwtable
define dso_local zeroext i1 @int_is_neg(ptr noundef byval(%struct.Int) align 8 %0) #0 {
  %2 = alloca i32, align 4
  %3 = alloca i1, align 1
  %4 = getelementptr inbounds %struct.Int, ptr %0, i32 0, i32 1
  %5 = load i32, ptr %4, align 8
  store i32 %5, ptr %2, align 4
  %6 = load i32, ptr %2, align 4
  %7 = icmp uge i32 %6, 8
  br i1 %7, label %8, label %11

8:                                                ; preds = %1
  %9 = load i32, ptr %2, align 4
  %10 = icmp ule i32 %9, 12
  br label %11

11:                                               ; preds = %8, %1
  %12 = phi i1 [ false, %1 ], [ %10, %8 ]
  br i1 %12, label %13, label %14

13:                                               ; preds = %11
  store i1 false, ptr %3, align 1
  br label %21

14:                                               ; preds = %11
  %15 = getelementptr inbounds %struct.Int, ptr %0, i32 0, i32 0
  %16 = getelementptr inbounds { i64, i64 }, ptr %15, i32 0, i32 0
  %17 = load i64, ptr %16, align 8
  %18 = getelementptr inbounds { i64, i64 }, ptr %15, i32 0, i32 1
  %19 = load i64, ptr %18, align 8
  %20 = call zeroext i1 @i128_is_neg(i64 %17, i64 %19)
  store i1 %20, ptr %3, align 1
  br label %21

21:                                               ; preds = %14, %13
  %22 = load i1, ptr %3, align 1
  ret i1 %22
}

; Function Attrs: nounwind uwtable
define dso_local i32 @i128_scomp(i64 %0, i64 %1, i64 %2, i64 %3) #0 {
  %5 = alloca i32, align 4
  %6 = alloca %struct.Int128_, align 8
  %7 = alloca %struct.Int128_, align 8
  %8 = alloca i8, align 1
  %9 = alloca i8, align 1
  %10 = getelementptr inbounds { i64, i64 }, ptr %6, i32 0, i32 0
  store i64 %0, ptr %10, align 8
  %11 = getelementptr inbounds { i64, i64 }, ptr %6, i32 0, i32 1
  store i64 %1, ptr %11, align 8
  %12 = getelementptr inbounds { i64, i64 }, ptr %7, i32 0, i32 0
  store i64 %2, ptr %12, align 8
  %13 = getelementptr inbounds { i64, i64 }, ptr %7, i32 0, i32 1
  store i64 %3, ptr %13, align 8
  %14 = getelementptr inbounds %struct.Int128_, ptr %6, i32 0, i32 0
  %15 = load i64, ptr %14, align 8
  %16 = and i64 %15, -9223372036854775808
  %17 = icmp ne i64 %16, 0
  %18 = zext i1 %17 to i8
  store i8 %18, ptr %8, align 1
  %19 = getelementptr inbounds %struct.Int128_, ptr %7, i32 0, i32 0
  %20 = load i64, ptr %19, align 8
  %21 = and i64 %20, -9223372036854775808
  %22 = icmp ne i64 %21, 0
  %23 = zext i1 %22 to i8
  store i8 %23, ptr %9, align 1
  %24 = load i8, ptr %8, align 1
  %25 = trunc i8 %24 to i1
  %26 = zext i1 %25 to i32
  %27 = load i8, ptr %9, align 1
  %28 = trunc i8 %27 to i1
  %29 = zext i1 %28 to i32
  %30 = icmp ne i32 %26, %29
  br i1 %30, label %31, label %35

31:                                               ; preds = %4
  %32 = load i8, ptr %8, align 1
  %33 = trunc i8 %32 to i1
  %34 = select i1 %33, i32 -1, i32 1
  store i32 %34, ptr %5, align 4
  br label %63

35:                                               ; preds = %4
  %36 = getelementptr inbounds %struct.Int128_, ptr %6, i32 0, i32 0
  %37 = load i64, ptr %36, align 8
  %38 = getelementptr inbounds %struct.Int128_, ptr %7, i32 0, i32 0
  %39 = load i64, ptr %38, align 8
  %40 = icmp ugt i64 %37, %39
  br i1 %40, label %41, label %42

41:                                               ; preds = %35
  store i32 1, ptr %5, align 4
  br label %63

42:                                               ; preds = %35
  %43 = getelementptr inbounds %struct.Int128_, ptr %6, i32 0, i32 0
  %44 = load i64, ptr %43, align 8
  %45 = getelementptr inbounds %struct.Int128_, ptr %7, i32 0, i32 0
  %46 = load i64, ptr %45, align 8
  %47 = icmp ult i64 %44, %46
  br i1 %47, label %48, label %49

48:                                               ; preds = %42
  store i32 -1, ptr %5, align 4
  br label %63

49:                                               ; preds = %42
  %50 = getelementptr inbounds %struct.Int128_, ptr %6, i32 0, i32 1
  %51 = load i64, ptr %50, align 8
  %52 = getelementptr inbounds %struct.Int128_, ptr %7, i32 0, i32 1
  %53 = load i64, ptr %52, align 8
  %54 = icmp eq i64 %51, %53
  br i1 %54, label %55, label %56

55:                                               ; preds = %49
  store i32 0, ptr %5, align 4
  br label %63

56:                                               ; preds = %49
  %57 = getelementptr inbounds %struct.Int128_, ptr %6, i32 0, i32 1
  %58 = load i64, ptr %57, align 8
  %59 = getelementptr inbounds %struct.Int128_, ptr %7, i32 0, i32 1
  %60 = load i64, ptr %59, align 8
  %61 = icmp ugt i64 %58, %60
  %62 = select i1 %61, i32 1, i32 -1
  store i32 %62, ptr %5, align 4
  br label %63

63:                                               ; preds = %56, %55, %48, %41, %31
  %64 = load i32, ptr %5, align 4
  ret i32 %64
}

; Function Attrs: nounwind uwtable
define dso_local zeroext i1 @binary_op_matches_res(i32 noundef %0, i32 noundef %1) #0 {
  %3 = alloca i1, align 1
  %4 = alloca i32, align 4
  %5 = alloca i32, align 4
  store i32 %0, ptr %4, align 4
  store i32 %1, ptr %5, align 4
  %6 = load i32, ptr %4, align 4
  switch i32 %6, label %25 [
    i32 14, label %7
    i32 15, label %10
    i32 16, label %13
    i32 17, label %16
    i32 18, label %19
    i32 19, label %22
  ]

7:                                                ; preds = %2
  %8 = load i32, ptr %5, align 4
  %9 = icmp eq i32 %8, 1
  store i1 %9, ptr %3, align 1
  br label %28

10:                                               ; preds = %2
  %11 = load i32, ptr %5, align 4
  %12 = icmp ne i32 %11, -1
  store i1 %12, ptr %3, align 1
  br label %28

13:                                               ; preds = %2
  %14 = load i32, ptr %5, align 4
  %15 = icmp eq i32 %14, -1
  store i1 %15, ptr %3, align 1
  br label %28

16:                                               ; preds = %2
  %17 = load i32, ptr %5, align 4
  %18 = icmp ne i32 %17, 1
  store i1 %18, ptr %3, align 1
  br label %28

19:                                               ; preds = %2
  %20 = load i32, ptr %5, align 4
  %21 = icmp ne i32 %20, 0
  store i1 %21, ptr %3, align 1
  br label %28

22:                                               ; preds = %2
  %23 = load i32, ptr %5, align 4
  %24 = icmp eq i32 %23, 0
  store i1 %24, ptr %3, align 1
  br label %28

25:                                               ; preds = %2
  br label %26

26:                                               ; preds = %25
  call void (ptr, ...) @error_exit(ptr noundef @.str, ptr noundef @.str.1, ptr noundef @__func__.binary_op_matches_res, ptr noundef @.str.2, i32 noundef 598) #8
  unreachable

27:                                               ; No predecessors!
  br label %28

28:                                               ; preds = %27, %22, %19, %16, %13, %10, %7
  %29 = load i1, ptr %3, align 1
  ret i1 %29
}

; Function Attrs: nounwind uwtable
define internal i32 @int_compare(ptr noundef byval(%struct.Int) align 8 %0, ptr noundef byval(%struct.Int) align 8 %1) #0 {
  %3 = alloca i32, align 4
  %4 = alloca i32, align 4
  %5 = alloca i32, align 4
  %6 = getelementptr inbounds %struct.Int, ptr %0, i32 0, i32 1
  %7 = load i32, ptr %6, align 8
  store i32 %7, ptr %3, align 4
  %8 = load i32, ptr %3, align 4
  %9 = icmp uge i32 %8, 3
  br i1 %9, label %10, label %13

10:                                               ; preds = %2
  %11 = load i32, ptr %3, align 4
  %12 = icmp ult i32 %11, 8
  br label %13

13:                                               ; preds = %10, %2
  %14 = phi i1 [ false, %2 ], [ %12, %10 ]
  br i1 %14, label %15, label %52

15:                                               ; preds = %13
  %16 = getelementptr inbounds %struct.Int, ptr %1, i32 0, i32 1
  %17 = load i32, ptr %16, align 8
  store i32 %17, ptr %4, align 4
  %18 = load i32, ptr %4, align 4
  %19 = icmp uge i32 %18, 3
  br i1 %19, label %20, label %23

20:                                               ; preds = %15
  %21 = load i32, ptr %4, align 4
  %22 = icmp ult i32 %21, 8
  br label %23

23:                                               ; preds = %20, %15
  %24 = phi i1 [ false, %15 ], [ %22, %20 ]
  br i1 %24, label %25, label %37

25:                                               ; preds = %23
  %26 = getelementptr inbounds %struct.Int, ptr %0, i32 0, i32 0
  %27 = getelementptr inbounds %struct.Int, ptr %1, i32 0, i32 0
  %28 = getelementptr inbounds { i64, i64 }, ptr %26, i32 0, i32 0
  %29 = load i64, ptr %28, align 8
  %30 = getelementptr inbounds { i64, i64 }, ptr %26, i32 0, i32 1
  %31 = load i64, ptr %30, align 8
  %32 = getelementptr inbounds { i64, i64 }, ptr %27, i32 0, i32 0
  %33 = load i64, ptr %32, align 8
  %34 = getelementptr inbounds { i64, i64 }, ptr %27, i32 0, i32 1
  %35 = load i64, ptr %34, align 8
  %36 = call i32 @i128_scomp(i64 %29, i64 %31, i64 %33, i64 %35)
  store i32 %36, ptr %5, align 4
  br label %67

37:                                               ; preds = %23
  %38 = call zeroext i1 @int_is_neg(ptr noundef byval(%struct.Int) align 8 %0)
  br i1 %38, label %39, label %40

39:                                               ; preds = %37
  store i32 -1, ptr %5, align 4
  br label %67

40:                                               ; preds = %37
  %41 = getelementptr inbounds %struct.Int, ptr %0, i32 0, i32 0
  %42 = getelementptr inbounds %struct.Int, ptr %1, i32 0, i32 0
  %43 = getelementptr inbounds { i64, i64 }, ptr %41, i32 0, i32 0
  %44 = load i64, ptr %43, align 8
  %45 = getelementptr inbounds { i64, i64 }, ptr %41, i32 0, i32 1
  %46 = load i64, ptr %45, align 8
  %47 = getelementptr inbounds { i64, i64 }, ptr %42, i32 0, i32 0
  %48 = load i64, ptr %47, align 8
  %49 = getelementptr inbounds { i64, i64 }, ptr %42, i32 0, i32 1
  %50 = load i64, ptr %49, align 8
  %51 = call i32 @i128_ucomp(i64 %44, i64 %46, i64 %48, i64 %50)
  store i32 %51, ptr %5, align 4
  br label %67

52:                                               ; preds = %13
  %53 = call zeroext i1 @int_is_neg(ptr noundef byval(%struct.Int) align 8 %1)
  br i1 %53, label %54, label %55

54:                                               ; preds = %52
  store i32 1, ptr %5, align 4
  br label %67

55:                                               ; preds = %52
  %56 = getelementptr inbounds %struct.Int, ptr %0, i32 0, i32 0
  %57 = getelementptr inbounds %struct.Int, ptr %1, i32 0, i32 0
  %58 = getelementptr inbounds { i64, i64 }, ptr %56, i32 0, i32 0
  %59 = load i64, ptr %58, align 8
  %60 = getelementptr inbounds { i64, i64 }, ptr %56, i32 0, i32 1
  %61 = load i64, ptr %60, align 8
  %62 = getelementptr inbounds { i64, i64 }, ptr %57, i32 0, i32 0
  %63 = load i64, ptr %62, align 8
  %64 = getelementptr inbounds { i64, i64 }, ptr %57, i32 0, i32 1
  %65 = load i64, ptr %64, align 8
  %66 = call i32 @i128_ucomp(i64 %59, i64 %61, i64 %63, i64 %65)
  store i32 %66, ptr %5, align 4
  br label %67

67:                                               ; preds = %55, %54, %40, %39, %25
  %68 = load i32, ptr %5, align 4
  ret i32 %68
}

; Function Attrs: nounwind uwtable
define dso_local zeroext i1 @int_comp(ptr noundef byval(%struct.Int) align 8 %0, ptr noundef byval(%struct.Int) align 8 %1, i32 noundef %2) #0 {
  %4 = alloca i32, align 4
  store i32 %2, ptr %4, align 4
  %5 = load i32, ptr %4, align 4
  %6 = call i32 @int_compare(ptr noundef byval(%struct.Int) align 8 %0, ptr noundef byval(%struct.Int) align 8 %1)
  %7 = call zeroext i1 @binary_op_matches_res(i32 noundef %5, i32 noundef %6)
  ret i1 %7
}