; Function Attrs: nounwind uwtable
define dso_local zeroext i1 @int_comp(ptr noundef readonly byval(%struct.Int) align 8 captures(none) %0, ptr noundef readonly byval(%struct.Int) align 8 captures(none) %1, i32 noundef %2) local_unnamed_addr #0 {
  %4 = getelementptr inbounds nuw i8, ptr %0, i64 16
  %5 = load i32, ptr %4, align 8
  %6 = add i32 %5, -3
  %7 = icmp ult i32 %6, 5
  %8 = getelementptr inbounds nuw i8, ptr %1, i64 16
  %9 = load i32, ptr %8, align 8
  br i1 %7, label %10, label %48

10:                                               ; preds = %3
  %11 = add i32 %9, -3
  %12 = icmp ult i32 %11, 5
  %13 = load i64, ptr %0, align 8
  br i1 %12, label %14, label %32

14:                                               ; preds = %10
  %15 = getelementptr inbounds nuw i8, ptr %0, i64 8
  %16 = load i64, ptr %15, align 8
  %17 = load i64, ptr %1, align 8
  %18 = getelementptr inbounds nuw i8, ptr %1, i64 8
  %19 = load i64, ptr %18, align 8
  %.not.unshifted.i.i = xor i64 %17, %13
  %.not.i.i = icmp sgt i64 %.not.unshifted.i.i, -1
  br i1 %.not.i.i, label %23, label %20

20:                                               ; preds = %14
  %21 = icmp slt i64 %13, 0
  %22 = select i1 %21, i32 -1, i32 1
  br label %int_compare.exit

23:                                               ; preds = %14
  %24 = icmp ugt i64 %13, %17
  br i1 %24, label %int_compare.exit, label %25

25:                                               ; preds = %23
  %26 = icmp ult i64 %13, %17
  br i1 %26, label %int_compare.exit, label %27

27:                                               ; preds = %25
  %28 = icmp eq i64 %16, %19
  br i1 %28, label %int_compare.exit, label %29

29:                                               ; preds = %27
  %30 = icmp ugt i64 %16, %19
  %31 = select i1 %30, i32 1, i32 -1
  br label %int_compare.exit

32:                                               ; preds = %10
  %33 = icmp slt i64 %13, 0
  br i1 %33, label %int_compare.exit, label %34

34:                                               ; preds = %32
  %35 = getelementptr inbounds nuw i8, ptr %0, i64 8
  %36 = load i64, ptr %35, align 8
  %37 = load i64, ptr %1, align 8
  %38 = getelementptr inbounds nuw i8, ptr %1, i64 8
  %39 = load i64, ptr %38, align 8
  %40 = icmp ugt i64 %13, %37
  br i1 %40, label %int_compare.exit, label %41

41:                                               ; preds = %34
  %42 = icmp ult i64 %13, %37
  br i1 %42, label %int_compare.exit, label %43

43:                                               ; preds = %41
  %44 = icmp eq i64 %36, %39
  br i1 %44, label %int_compare.exit, label %45

45:                                               ; preds = %43
  %46 = icmp ugt i64 %36, %39
  %47 = select i1 %46, i32 1, i32 -1
  br label %int_compare.exit

48:                                               ; preds = %3
  %49 = add i32 %9, -13
  %50 = icmp ult i32 %49, -5
  %51 = load i64, ptr %1, align 8
  %52 = icmp slt i64 %51, 0
  %.0.i7.i = select i1 %50, i1 %52, i1 false
  br i1 %.0.i7.i, label %int_compare.exit, label %53

53:                                               ; preds = %48
  %54 = load i64, ptr %0, align 8
  %55 = getelementptr inbounds nuw i8, ptr %0, i64 8
  %56 = load i64, ptr %55, align 8
  %57 = getelementptr inbounds nuw i8, ptr %1, i64 8
  %58 = load i64, ptr %57, align 8
  %59 = icmp ugt i64 %54, %51
  br i1 %59, label %int_compare.exit, label %60

60:                                               ; preds = %53
  %61 = icmp ult i64 %54, %51
  br i1 %61, label %int_compare.exit, label %62

62:                                               ; preds = %60
  %63 = icmp eq i64 %56, %58
  br i1 %63, label %int_compare.exit, label %64

64:                                               ; preds = %62
  %65 = icmp ugt i64 %56, %58
  %66 = select i1 %65, i32 1, i32 -1
  br label %int_compare.exit

int_compare.exit:                                 ; preds = %20, %23, %25, %27, %29, %32, %34, %41, %43, %45, %48, %53, %60, %62, %64
  %.0.i = phi i32 [ -1, %32 ], [ 1, %48 ], [ %22, %20 ], [ %31, %29 ], [ 1, %23 ], [ -1, %25 ], [ 0, %27 ], [ %47, %45 ], [ 1, %34 ], [ -1, %41 ], [ 0, %43 ], [ %66, %64 ], [ 1, %53 ], [ -1, %60 ], [ 0, %62 ]
  switch i32 %2, label %79 [
    i32 14, label %67
    i32 15, label %69
    i32 16, label %71
    i32 17, label %73
    i32 18, label %75
    i32 19, label %77
  ]

67:                                               ; preds = %int_compare.exit
  %68 = icmp eq i32 %.0.i, 1
  br label %binary_op_matches_res.exit

69:                                               ; preds = %int_compare.exit
  %70 = icmp ne i32 %.0.i, -1
  br label %binary_op_matches_res.exit

71:                                               ; preds = %int_compare.exit
  %72 = icmp eq i32 %.0.i, -1
  br label %binary_op_matches_res.exit

73:                                               ; preds = %int_compare.exit
  %74 = icmp ne i32 %.0.i, 1
  br label %binary_op_matches_res.exit

75:                                               ; preds = %int_compare.exit
  %76 = icmp ne i32 %.0.i, 0
  br label %binary_op_matches_res.exit

77:                                               ; preds = %int_compare.exit
  %78 = icmp eq i32 %.0.i, 0
  br label %binary_op_matches_res.exit

79:                                               ; preds = %int_compare.exit
  tail call void (ptr, ...) @error_exit(ptr noundef nonnull @.str, ptr noundef nonnull @.str.1, ptr noundef nonnull @__func__.binary_op_matches_res, ptr noundef nonnull @.str.2, i32 noundef 598) #20
  unreachable

binary_op_matches_res.exit:                       ; preds = %67, %69, %71, %73, %75, %77
  %.0.i1 = phi i1 [ %78, %77 ], [ %76, %75 ], [ %74, %73 ], [ %72, %71 ], [ %70, %69 ], [ %68, %67 ]
  ret i1 %.0.i1
}